ARM GAS  C:\Users\Admin\AppData\Local\Temp\ccBVqVuH.s 			page 1


   1              		.cpu cortex-m4
   2              		.arch armv7e-m
   3              		.fpu fpv4-sp-d16
   4              		.eabi_attribute 27, 1
   5              		.eabi_attribute 28, 1
   6              		.eabi_attribute 20, 1
   7              		.eabi_attribute 21, 1
   8              		.eabi_attribute 23, 3
   9              		.eabi_attribute 24, 1
  10              		.eabi_attribute 25, 1
  11              		.eabi_attribute 26, 1
  12              		.eabi_attribute 30, 1
  13              		.eabi_attribute 34, 1
  14              		.eabi_attribute 18, 4
  15              		.file	"main.c"
  16              		.text
  17              	.Ltext0:
  18              		.cfi_sections	.debug_frame
  19              		.section	.text.MX_GPIO_Init,"ax",%progbits
  20              		.align	1
  21              		.syntax unified
  22              		.thumb
  23              		.thumb_func
  25              	MX_GPIO_Init:
  26              	.LFB135:
  27              		.file 1 "Core/Src/main.c"
   1:Core/Src/main.c **** /* USER CODE BEGIN Header */
   2:Core/Src/main.c **** /**
   3:Core/Src/main.c ****   ******************************************************************************
   4:Core/Src/main.c ****   * @file           : main.c
   5:Core/Src/main.c ****   * @brief          : Main program body
   6:Core/Src/main.c ****   ******************************************************************************
   7:Core/Src/main.c ****   * @attention
   8:Core/Src/main.c ****   *
   9:Core/Src/main.c ****   * Copyright (c) 2023 STMicroelectronics.
  10:Core/Src/main.c ****   * All rights reserved.
  11:Core/Src/main.c ****   *
  12:Core/Src/main.c ****   * This software is licensed under terms that can be found in the LICENSE file
  13:Core/Src/main.c ****   * in the root directory of this software component.
  14:Core/Src/main.c ****   * If no LICENSE file comes with this software, it is provided AS-IS.
  15:Core/Src/main.c ****   *
  16:Core/Src/main.c ****   ******************************************************************************
  17:Core/Src/main.c ****   */
  18:Core/Src/main.c **** /* USER CODE END Header */
  19:Core/Src/main.c **** /* Includes ------------------------------------------------------------------*/
  20:Core/Src/main.c **** #include "main.h"
  21:Core/Src/main.c **** 
  22:Core/Src/main.c **** /* Private includes ----------------------------------------------------------*/
  23:Core/Src/main.c **** /* USER CODE BEGIN Includes */
  24:Core/Src/main.c **** #include "string.h"
  25:Core/Src/main.c **** /* USER CODE END Includes */
  26:Core/Src/main.c **** 
  27:Core/Src/main.c **** /* Private typedef -----------------------------------------------------------*/
  28:Core/Src/main.c **** /* USER CODE BEGIN PTD */
  29:Core/Src/main.c **** 
  30:Core/Src/main.c **** /* USER CODE END PTD */
  31:Core/Src/main.c **** 
ARM GAS  C:\Users\Admin\AppData\Local\Temp\ccBVqVuH.s 			page 2


  32:Core/Src/main.c **** /* Private define ------------------------------------------------------------*/
  33:Core/Src/main.c **** /* USER CODE BEGIN PD */
  34:Core/Src/main.c **** /* USER CODE END PD */
  35:Core/Src/main.c **** 
  36:Core/Src/main.c **** /* Private macro -------------------------------------------------------------*/
  37:Core/Src/main.c **** /* USER CODE BEGIN PM */
  38:Core/Src/main.c **** 
  39:Core/Src/main.c **** /* USER CODE END PM */
  40:Core/Src/main.c **** 
  41:Core/Src/main.c **** /* Private variables ---------------------------------------------------------*/
  42:Core/Src/main.c **** UART_HandleTypeDef huart2;
  43:Core/Src/main.c **** 
  44:Core/Src/main.c **** /* USER CODE BEGIN PV */
  45:Core/Src/main.c **** 
  46:Core/Src/main.c **** /* USER CODE END PV */
  47:Core/Src/main.c **** 
  48:Core/Src/main.c **** /* Private function prototypes -----------------------------------------------*/
  49:Core/Src/main.c **** void SystemClock_Config(void);
  50:Core/Src/main.c **** static void MX_GPIO_Init(void);
  51:Core/Src/main.c **** static void MX_USART2_UART_Init(void);
  52:Core/Src/main.c **** /* USER CODE BEGIN PFP */
  53:Core/Src/main.c **** 
  54:Core/Src/main.c **** /* USER CODE END PFP */
  55:Core/Src/main.c **** 
  56:Core/Src/main.c **** /* Private user code ---------------------------------------------------------*/
  57:Core/Src/main.c **** /* USER CODE BEGIN 0 */
  58:Core/Src/main.c **** char *message = "Xin chao Tuan Nhat!\r\n";
  59:Core/Src/main.c **** /* USER CODE END 0 */
  60:Core/Src/main.c **** 
  61:Core/Src/main.c **** /**
  62:Core/Src/main.c ****   * @brief  The application entry point.
  63:Core/Src/main.c ****   * @retval int
  64:Core/Src/main.c ****   */
  65:Core/Src/main.c **** int main(void)
  66:Core/Src/main.c **** {
  67:Core/Src/main.c ****   /* USER CODE BEGIN 1 */
  68:Core/Src/main.c **** 
  69:Core/Src/main.c ****   /* USER CODE END 1 */
  70:Core/Src/main.c **** 
  71:Core/Src/main.c ****   /* MCU Configuration--------------------------------------------------------*/
  72:Core/Src/main.c **** 
  73:Core/Src/main.c ****   /* Reset of all peripherals, Initializes the Flash interface and the Systick. */
  74:Core/Src/main.c ****   HAL_Init();
  75:Core/Src/main.c **** 
  76:Core/Src/main.c ****   /* USER CODE BEGIN Init */
  77:Core/Src/main.c **** 
  78:Core/Src/main.c ****   /* USER CODE END Init */
  79:Core/Src/main.c **** 
  80:Core/Src/main.c ****   /* Configure the system clock */
  81:Core/Src/main.c ****   SystemClock_Config();
  82:Core/Src/main.c **** 
  83:Core/Src/main.c ****   /* USER CODE BEGIN SysInit */
  84:Core/Src/main.c **** 
  85:Core/Src/main.c ****   /* USER CODE END SysInit */
  86:Core/Src/main.c **** 
  87:Core/Src/main.c ****   /* Initialize all configured peripherals */
  88:Core/Src/main.c ****   MX_GPIO_Init();
ARM GAS  C:\Users\Admin\AppData\Local\Temp\ccBVqVuH.s 			page 3


  89:Core/Src/main.c ****   MX_USART2_UART_Init();
  90:Core/Src/main.c ****   /* USER CODE BEGIN 2 */
  91:Core/Src/main.c **** 
  92:Core/Src/main.c ****   /* USER CODE END 2 */
  93:Core/Src/main.c **** 
  94:Core/Src/main.c ****   /* Infinite loop */
  95:Core/Src/main.c ****   /* USER CODE BEGIN WHILE */
  96:Core/Src/main.c ****   while (1)
  97:Core/Src/main.c ****   {
  98:Core/Src/main.c ****     /* USER CODE END WHILE */
  99:Core/Src/main.c ****     HAL_GPIO_TogglePin(LD2_GPIO_Port, LD2_Pin);
 100:Core/Src/main.c ****     HAL_UART_Transmit(&huart2, (uint8_t*)message, strlen(message), HAL_MAX_DELAY);
 101:Core/Src/main.c ****     HAL_Delay(1000);
 102:Core/Src/main.c ****     /* USER CODE BEGIN 3 */
 103:Core/Src/main.c ****   }
 104:Core/Src/main.c ****   /* USER CODE END 3 */
 105:Core/Src/main.c **** }
 106:Core/Src/main.c **** 
 107:Core/Src/main.c **** /**
 108:Core/Src/main.c ****   * @brief System Clock Configuration
 109:Core/Src/main.c ****   * @retval None
 110:Core/Src/main.c ****   */
 111:Core/Src/main.c **** void SystemClock_Config(void)
 112:Core/Src/main.c **** {
 113:Core/Src/main.c ****   RCC_OscInitTypeDef RCC_OscInitStruct = {0};
 114:Core/Src/main.c ****   RCC_ClkInitTypeDef RCC_ClkInitStruct = {0};
 115:Core/Src/main.c **** 
 116:Core/Src/main.c ****   /** Configure the main internal regulator output voltage
 117:Core/Src/main.c ****   */
 118:Core/Src/main.c ****   if (HAL_PWREx_ControlVoltageScaling(PWR_REGULATOR_VOLTAGE_SCALE1) != HAL_OK)
 119:Core/Src/main.c ****   {
 120:Core/Src/main.c ****     Error_Handler();
 121:Core/Src/main.c ****   }
 122:Core/Src/main.c **** 
 123:Core/Src/main.c ****   /** Initializes the RCC Oscillators according to the specified parameters
 124:Core/Src/main.c ****   * in the RCC_OscInitTypeDef structure.
 125:Core/Src/main.c ****   */
 126:Core/Src/main.c ****   RCC_OscInitStruct.OscillatorType = RCC_OSCILLATORTYPE_HSI;
 127:Core/Src/main.c ****   RCC_OscInitStruct.HSIState = RCC_HSI_ON;
 128:Core/Src/main.c ****   RCC_OscInitStruct.HSICalibrationValue = RCC_HSICALIBRATION_DEFAULT;
 129:Core/Src/main.c ****   RCC_OscInitStruct.PLL.PLLState = RCC_PLL_ON;
 130:Core/Src/main.c ****   RCC_OscInitStruct.PLL.PLLSource = RCC_PLLSOURCE_HSI;
 131:Core/Src/main.c ****   RCC_OscInitStruct.PLL.PLLM = 1;
 132:Core/Src/main.c ****   RCC_OscInitStruct.PLL.PLLN = 10;
 133:Core/Src/main.c ****   RCC_OscInitStruct.PLL.PLLP = RCC_PLLP_DIV7;
 134:Core/Src/main.c ****   RCC_OscInitStruct.PLL.PLLQ = RCC_PLLQ_DIV2;
 135:Core/Src/main.c ****   RCC_OscInitStruct.PLL.PLLR = RCC_PLLR_DIV2;
 136:Core/Src/main.c ****   if (HAL_RCC_OscConfig(&RCC_OscInitStruct) != HAL_OK)
 137:Core/Src/main.c ****   {
 138:Core/Src/main.c ****     Error_Handler();
 139:Core/Src/main.c ****   }
 140:Core/Src/main.c **** 
 141:Core/Src/main.c ****   /** Initializes the CPU, AHB and APB buses clocks
 142:Core/Src/main.c ****   */
 143:Core/Src/main.c ****   RCC_ClkInitStruct.ClockType = RCC_CLOCKTYPE_HCLK|RCC_CLOCKTYPE_SYSCLK
 144:Core/Src/main.c ****                               |RCC_CLOCKTYPE_PCLK1|RCC_CLOCKTYPE_PCLK2;
 145:Core/Src/main.c ****   RCC_ClkInitStruct.SYSCLKSource = RCC_SYSCLKSOURCE_PLLCLK;
ARM GAS  C:\Users\Admin\AppData\Local\Temp\ccBVqVuH.s 			page 4


 146:Core/Src/main.c ****   RCC_ClkInitStruct.AHBCLKDivider = RCC_SYSCLK_DIV1;
 147:Core/Src/main.c ****   RCC_ClkInitStruct.APB1CLKDivider = RCC_HCLK_DIV1;
 148:Core/Src/main.c ****   RCC_ClkInitStruct.APB2CLKDivider = RCC_HCLK_DIV1;
 149:Core/Src/main.c **** 
 150:Core/Src/main.c ****   if (HAL_RCC_ClockConfig(&RCC_ClkInitStruct, FLASH_LATENCY_4) != HAL_OK)
 151:Core/Src/main.c ****   {
 152:Core/Src/main.c ****     Error_Handler();
 153:Core/Src/main.c ****   }
 154:Core/Src/main.c **** }
 155:Core/Src/main.c **** 
 156:Core/Src/main.c **** /**
 157:Core/Src/main.c ****   * @brief USART2 Initialization Function
 158:Core/Src/main.c ****   * @param None
 159:Core/Src/main.c ****   * @retval None
 160:Core/Src/main.c ****   */
 161:Core/Src/main.c **** static void MX_USART2_UART_Init(void)
 162:Core/Src/main.c **** {
 163:Core/Src/main.c **** 
 164:Core/Src/main.c ****   /* USER CODE BEGIN USART2_Init 0 */
 165:Core/Src/main.c **** 
 166:Core/Src/main.c ****   /* USER CODE END USART2_Init 0 */
 167:Core/Src/main.c **** 
 168:Core/Src/main.c ****   /* USER CODE BEGIN USART2_Init 1 */
 169:Core/Src/main.c **** 
 170:Core/Src/main.c ****   /* USER CODE END USART2_Init 1 */
 171:Core/Src/main.c ****   huart2.Instance = USART2;
 172:Core/Src/main.c ****   huart2.Init.BaudRate = 115200;
 173:Core/Src/main.c ****   huart2.Init.WordLength = UART_WORDLENGTH_8B;
 174:Core/Src/main.c ****   huart2.Init.StopBits = UART_STOPBITS_1;
 175:Core/Src/main.c ****   huart2.Init.Parity = UART_PARITY_NONE;
 176:Core/Src/main.c ****   huart2.Init.Mode = UART_MODE_TX_RX;
 177:Core/Src/main.c ****   huart2.Init.HwFlowCtl = UART_HWCONTROL_NONE;
 178:Core/Src/main.c ****   huart2.Init.OverSampling = UART_OVERSAMPLING_16;
 179:Core/Src/main.c ****   huart2.Init.OneBitSampling = UART_ONE_BIT_SAMPLE_DISABLE;
 180:Core/Src/main.c ****   huart2.AdvancedInit.AdvFeatureInit = UART_ADVFEATURE_NO_INIT;
 181:Core/Src/main.c ****   if (HAL_UART_Init(&huart2) != HAL_OK)
 182:Core/Src/main.c ****   {
 183:Core/Src/main.c ****     Error_Handler();
 184:Core/Src/main.c ****   }
 185:Core/Src/main.c ****   /* USER CODE BEGIN USART2_Init 2 */
 186:Core/Src/main.c **** 
 187:Core/Src/main.c ****   /* USER CODE END USART2_Init 2 */
 188:Core/Src/main.c **** 
 189:Core/Src/main.c **** }
 190:Core/Src/main.c **** 
 191:Core/Src/main.c **** /**
 192:Core/Src/main.c ****   * @brief GPIO Initialization Function
 193:Core/Src/main.c ****   * @param None
 194:Core/Src/main.c ****   * @retval None
 195:Core/Src/main.c ****   */
 196:Core/Src/main.c **** static void MX_GPIO_Init(void)
 197:Core/Src/main.c **** {
  28              		.loc 1 197 1 view -0
  29              		.cfi_startproc
  30              		@ args = 0, pretend = 0, frame = 40
  31              		@ frame_needed = 0, uses_anonymous_args = 0
  32 0000 10B5     		push	{r4, lr}
ARM GAS  C:\Users\Admin\AppData\Local\Temp\ccBVqVuH.s 			page 5


  33              	.LCFI0:
  34              		.cfi_def_cfa_offset 8
  35              		.cfi_offset 4, -8
  36              		.cfi_offset 14, -4
  37 0002 8AB0     		sub	sp, sp, #40
  38              	.LCFI1:
  39              		.cfi_def_cfa_offset 48
 198:Core/Src/main.c ****   GPIO_InitTypeDef GPIO_InitStruct = {0};
  40              		.loc 1 198 3 view .LVU1
  41              		.loc 1 198 20 is_stmt 0 view .LVU2
  42 0004 0024     		movs	r4, #0
  43 0006 0594     		str	r4, [sp, #20]
  44 0008 0694     		str	r4, [sp, #24]
  45 000a 0794     		str	r4, [sp, #28]
  46 000c 0894     		str	r4, [sp, #32]
  47 000e 0994     		str	r4, [sp, #36]
 199:Core/Src/main.c **** 
 200:Core/Src/main.c ****   /* GPIO Ports Clock Enable */
 201:Core/Src/main.c ****   __HAL_RCC_GPIOC_CLK_ENABLE();
  48              		.loc 1 201 3 is_stmt 1 view .LVU3
  49              	.LBB4:
  50              		.loc 1 201 3 view .LVU4
  51              		.loc 1 201 3 view .LVU5
  52 0010 214B     		ldr	r3, .L3
  53 0012 DA6C     		ldr	r2, [r3, #76]
  54 0014 42F00402 		orr	r2, r2, #4
  55 0018 DA64     		str	r2, [r3, #76]
  56              		.loc 1 201 3 view .LVU6
  57 001a DA6C     		ldr	r2, [r3, #76]
  58 001c 02F00402 		and	r2, r2, #4
  59 0020 0192     		str	r2, [sp, #4]
  60              		.loc 1 201 3 view .LVU7
  61 0022 019A     		ldr	r2, [sp, #4]
  62              	.LBE4:
  63              		.loc 1 201 3 view .LVU8
 202:Core/Src/main.c ****   __HAL_RCC_GPIOH_CLK_ENABLE();
  64              		.loc 1 202 3 view .LVU9
  65              	.LBB5:
  66              		.loc 1 202 3 view .LVU10
  67              		.loc 1 202 3 view .LVU11
  68 0024 DA6C     		ldr	r2, [r3, #76]
  69 0026 42F08002 		orr	r2, r2, #128
  70 002a DA64     		str	r2, [r3, #76]
  71              		.loc 1 202 3 view .LVU12
  72 002c DA6C     		ldr	r2, [r3, #76]
  73 002e 02F08002 		and	r2, r2, #128
  74 0032 0292     		str	r2, [sp, #8]
  75              		.loc 1 202 3 view .LVU13
  76 0034 029A     		ldr	r2, [sp, #8]
  77              	.LBE5:
  78              		.loc 1 202 3 view .LVU14
 203:Core/Src/main.c ****   __HAL_RCC_GPIOA_CLK_ENABLE();
  79              		.loc 1 203 3 view .LVU15
  80              	.LBB6:
  81              		.loc 1 203 3 view .LVU16
  82              		.loc 1 203 3 view .LVU17
  83 0036 DA6C     		ldr	r2, [r3, #76]
ARM GAS  C:\Users\Admin\AppData\Local\Temp\ccBVqVuH.s 			page 6


  84 0038 42F00102 		orr	r2, r2, #1
  85 003c DA64     		str	r2, [r3, #76]
  86              		.loc 1 203 3 view .LVU18
  87 003e DA6C     		ldr	r2, [r3, #76]
  88 0040 02F00102 		and	r2, r2, #1
  89 0044 0392     		str	r2, [sp, #12]
  90              		.loc 1 203 3 view .LVU19
  91 0046 039A     		ldr	r2, [sp, #12]
  92              	.LBE6:
  93              		.loc 1 203 3 view .LVU20
 204:Core/Src/main.c ****   __HAL_RCC_GPIOB_CLK_ENABLE();
  94              		.loc 1 204 3 view .LVU21
  95              	.LBB7:
  96              		.loc 1 204 3 view .LVU22
  97              		.loc 1 204 3 view .LVU23
  98 0048 DA6C     		ldr	r2, [r3, #76]
  99 004a 42F00202 		orr	r2, r2, #2
 100 004e DA64     		str	r2, [r3, #76]
 101              		.loc 1 204 3 view .LVU24
 102 0050 DB6C     		ldr	r3, [r3, #76]
 103 0052 03F00203 		and	r3, r3, #2
 104 0056 0493     		str	r3, [sp, #16]
 105              		.loc 1 204 3 view .LVU25
 106 0058 049B     		ldr	r3, [sp, #16]
 107              	.LBE7:
 108              		.loc 1 204 3 view .LVU26
 205:Core/Src/main.c **** 
 206:Core/Src/main.c ****   /*Configure GPIO pin Output Level */
 207:Core/Src/main.c ****   HAL_GPIO_WritePin(LD2_GPIO_Port, LD2_Pin, GPIO_PIN_RESET);
 109              		.loc 1 207 3 view .LVU27
 110 005a 2246     		mov	r2, r4
 111 005c 2021     		movs	r1, #32
 112 005e 4FF09040 		mov	r0, #1207959552
 113 0062 FFF7FEFF 		bl	HAL_GPIO_WritePin
 114              	.LVL0:
 208:Core/Src/main.c **** 
 209:Core/Src/main.c ****   /*Configure GPIO pin : B1_Pin */
 210:Core/Src/main.c ****   GPIO_InitStruct.Pin = B1_Pin;
 115              		.loc 1 210 3 view .LVU28
 116              		.loc 1 210 23 is_stmt 0 view .LVU29
 117 0066 4FF40053 		mov	r3, #8192
 118 006a 0593     		str	r3, [sp, #20]
 211:Core/Src/main.c ****   GPIO_InitStruct.Mode = GPIO_MODE_IT_FALLING;
 119              		.loc 1 211 3 is_stmt 1 view .LVU30
 120              		.loc 1 211 24 is_stmt 0 view .LVU31
 121 006c 4FF40413 		mov	r3, #2162688
 122 0070 0693     		str	r3, [sp, #24]
 212:Core/Src/main.c ****   GPIO_InitStruct.Pull = GPIO_NOPULL;
 123              		.loc 1 212 3 is_stmt 1 view .LVU32
 124              		.loc 1 212 24 is_stmt 0 view .LVU33
 125 0072 0794     		str	r4, [sp, #28]
 213:Core/Src/main.c ****   HAL_GPIO_Init(B1_GPIO_Port, &GPIO_InitStruct);
 126              		.loc 1 213 3 is_stmt 1 view .LVU34
 127 0074 05A9     		add	r1, sp, #20
 128 0076 0948     		ldr	r0, .L3+4
 129 0078 FFF7FEFF 		bl	HAL_GPIO_Init
 130              	.LVL1:
ARM GAS  C:\Users\Admin\AppData\Local\Temp\ccBVqVuH.s 			page 7


 214:Core/Src/main.c **** 
 215:Core/Src/main.c ****   /*Configure GPIO pin : LD2_Pin */
 216:Core/Src/main.c ****   GPIO_InitStruct.Pin = LD2_Pin;
 131              		.loc 1 216 3 view .LVU35
 132              		.loc 1 216 23 is_stmt 0 view .LVU36
 133 007c 2023     		movs	r3, #32
 134 007e 0593     		str	r3, [sp, #20]
 217:Core/Src/main.c ****   GPIO_InitStruct.Mode = GPIO_MODE_OUTPUT_PP;
 135              		.loc 1 217 3 is_stmt 1 view .LVU37
 136              		.loc 1 217 24 is_stmt 0 view .LVU38
 137 0080 0123     		movs	r3, #1
 138 0082 0693     		str	r3, [sp, #24]
 218:Core/Src/main.c ****   GPIO_InitStruct.Pull = GPIO_NOPULL;
 139              		.loc 1 218 3 is_stmt 1 view .LVU39
 140              		.loc 1 218 24 is_stmt 0 view .LVU40
 141 0084 0794     		str	r4, [sp, #28]
 219:Core/Src/main.c ****   GPIO_InitStruct.Speed = GPIO_SPEED_FREQ_LOW;
 142              		.loc 1 219 3 is_stmt 1 view .LVU41
 143              		.loc 1 219 25 is_stmt 0 view .LVU42
 144 0086 0894     		str	r4, [sp, #32]
 220:Core/Src/main.c ****   HAL_GPIO_Init(LD2_GPIO_Port, &GPIO_InitStruct);
 145              		.loc 1 220 3 is_stmt 1 view .LVU43
 146 0088 05A9     		add	r1, sp, #20
 147 008a 4FF09040 		mov	r0, #1207959552
 148 008e FFF7FEFF 		bl	HAL_GPIO_Init
 149              	.LVL2:
 221:Core/Src/main.c **** 
 222:Core/Src/main.c **** }
 150              		.loc 1 222 1 is_stmt 0 view .LVU44
 151 0092 0AB0     		add	sp, sp, #40
 152              	.LCFI2:
 153              		.cfi_def_cfa_offset 8
 154              		@ sp needed
 155 0094 10BD     		pop	{r4, pc}
 156              	.L4:
 157 0096 00BF     		.align	2
 158              	.L3:
 159 0098 00100240 		.word	1073876992
 160 009c 00080048 		.word	1207961600
 161              		.cfi_endproc
 162              	.LFE135:
 164              		.section	.text.Error_Handler,"ax",%progbits
 165              		.align	1
 166              		.global	Error_Handler
 167              		.syntax unified
 168              		.thumb
 169              		.thumb_func
 171              	Error_Handler:
 172              	.LFB136:
 223:Core/Src/main.c **** 
 224:Core/Src/main.c **** /* USER CODE BEGIN 4 */
 225:Core/Src/main.c **** 
 226:Core/Src/main.c **** /* USER CODE END 4 */
 227:Core/Src/main.c **** 
 228:Core/Src/main.c **** /**
 229:Core/Src/main.c ****   * @brief  This function is executed in case of error occurrence.
 230:Core/Src/main.c ****   * @retval None
ARM GAS  C:\Users\Admin\AppData\Local\Temp\ccBVqVuH.s 			page 8


 231:Core/Src/main.c ****   */
 232:Core/Src/main.c **** void Error_Handler(void)
 233:Core/Src/main.c **** {
 173              		.loc 1 233 1 is_stmt 1 view -0
 174              		.cfi_startproc
 175              		@ Volatile: function does not return.
 176              		@ args = 0, pretend = 0, frame = 0
 177              		@ frame_needed = 0, uses_anonymous_args = 0
 178              		@ link register save eliminated.
 234:Core/Src/main.c ****   /* USER CODE BEGIN Error_Handler_Debug */
 235:Core/Src/main.c ****   /* User can add his own implementation to report the HAL error return state */
 236:Core/Src/main.c ****   __disable_irq();
 179              		.loc 1 236 3 view .LVU46
 180              	.LBB8:
 181              	.LBI8:
 182              		.file 2 "Drivers/CMSIS/Include/cmsis_gcc.h"
   1:Drivers/CMSIS/Include/cmsis_gcc.h **** /**************************************************************************//**
   2:Drivers/CMSIS/Include/cmsis_gcc.h ****  * @file     cmsis_gcc.h
   3:Drivers/CMSIS/Include/cmsis_gcc.h ****  * @brief    CMSIS compiler GCC header file
   4:Drivers/CMSIS/Include/cmsis_gcc.h ****  * @version  V5.2.0
   5:Drivers/CMSIS/Include/cmsis_gcc.h ****  * @date     08. May 2019
   6:Drivers/CMSIS/Include/cmsis_gcc.h ****  ******************************************************************************/
   7:Drivers/CMSIS/Include/cmsis_gcc.h **** /*
   8:Drivers/CMSIS/Include/cmsis_gcc.h ****  * Copyright (c) 2009-2019 Arm Limited. All rights reserved.
   9:Drivers/CMSIS/Include/cmsis_gcc.h ****  *
  10:Drivers/CMSIS/Include/cmsis_gcc.h ****  * SPDX-License-Identifier: Apache-2.0
  11:Drivers/CMSIS/Include/cmsis_gcc.h ****  *
  12:Drivers/CMSIS/Include/cmsis_gcc.h ****  * Licensed under the Apache License, Version 2.0 (the License); you may
  13:Drivers/CMSIS/Include/cmsis_gcc.h ****  * not use this file except in compliance with the License.
  14:Drivers/CMSIS/Include/cmsis_gcc.h ****  * You may obtain a copy of the License at
  15:Drivers/CMSIS/Include/cmsis_gcc.h ****  *
  16:Drivers/CMSIS/Include/cmsis_gcc.h ****  * www.apache.org/licenses/LICENSE-2.0
  17:Drivers/CMSIS/Include/cmsis_gcc.h ****  *
  18:Drivers/CMSIS/Include/cmsis_gcc.h ****  * Unless required by applicable law or agreed to in writing, software
  19:Drivers/CMSIS/Include/cmsis_gcc.h ****  * distributed under the License is distributed on an AS IS BASIS, WITHOUT
  20:Drivers/CMSIS/Include/cmsis_gcc.h ****  * WARRANTIES OR CONDITIONS OF ANY KIND, either express or implied.
  21:Drivers/CMSIS/Include/cmsis_gcc.h ****  * See the License for the specific language governing permissions and
  22:Drivers/CMSIS/Include/cmsis_gcc.h ****  * limitations under the License.
  23:Drivers/CMSIS/Include/cmsis_gcc.h ****  */
  24:Drivers/CMSIS/Include/cmsis_gcc.h **** 
  25:Drivers/CMSIS/Include/cmsis_gcc.h **** #ifndef __CMSIS_GCC_H
  26:Drivers/CMSIS/Include/cmsis_gcc.h **** #define __CMSIS_GCC_H
  27:Drivers/CMSIS/Include/cmsis_gcc.h **** 
  28:Drivers/CMSIS/Include/cmsis_gcc.h **** /* ignore some GCC warnings */
  29:Drivers/CMSIS/Include/cmsis_gcc.h **** #pragma GCC diagnostic push
  30:Drivers/CMSIS/Include/cmsis_gcc.h **** #pragma GCC diagnostic ignored "-Wsign-conversion"
  31:Drivers/CMSIS/Include/cmsis_gcc.h **** #pragma GCC diagnostic ignored "-Wconversion"
  32:Drivers/CMSIS/Include/cmsis_gcc.h **** #pragma GCC diagnostic ignored "-Wunused-parameter"
  33:Drivers/CMSIS/Include/cmsis_gcc.h **** 
  34:Drivers/CMSIS/Include/cmsis_gcc.h **** /* Fallback for __has_builtin */
  35:Drivers/CMSIS/Include/cmsis_gcc.h **** #ifndef __has_builtin
  36:Drivers/CMSIS/Include/cmsis_gcc.h ****   #define __has_builtin(x) (0)
  37:Drivers/CMSIS/Include/cmsis_gcc.h **** #endif
  38:Drivers/CMSIS/Include/cmsis_gcc.h **** 
  39:Drivers/CMSIS/Include/cmsis_gcc.h **** /* CMSIS compiler specific defines */
  40:Drivers/CMSIS/Include/cmsis_gcc.h **** #ifndef   __ASM
  41:Drivers/CMSIS/Include/cmsis_gcc.h ****   #define __ASM                                  __asm
ARM GAS  C:\Users\Admin\AppData\Local\Temp\ccBVqVuH.s 			page 9


  42:Drivers/CMSIS/Include/cmsis_gcc.h **** #endif
  43:Drivers/CMSIS/Include/cmsis_gcc.h **** #ifndef   __INLINE
  44:Drivers/CMSIS/Include/cmsis_gcc.h ****   #define __INLINE                               inline
  45:Drivers/CMSIS/Include/cmsis_gcc.h **** #endif
  46:Drivers/CMSIS/Include/cmsis_gcc.h **** #ifndef   __STATIC_INLINE
  47:Drivers/CMSIS/Include/cmsis_gcc.h ****   #define __STATIC_INLINE                        static inline
  48:Drivers/CMSIS/Include/cmsis_gcc.h **** #endif
  49:Drivers/CMSIS/Include/cmsis_gcc.h **** #ifndef   __STATIC_FORCEINLINE                 
  50:Drivers/CMSIS/Include/cmsis_gcc.h ****   #define __STATIC_FORCEINLINE                   __attribute__((always_inline)) static inline
  51:Drivers/CMSIS/Include/cmsis_gcc.h **** #endif                                           
  52:Drivers/CMSIS/Include/cmsis_gcc.h **** #ifndef   __NO_RETURN
  53:Drivers/CMSIS/Include/cmsis_gcc.h ****   #define __NO_RETURN                            __attribute__((__noreturn__))
  54:Drivers/CMSIS/Include/cmsis_gcc.h **** #endif
  55:Drivers/CMSIS/Include/cmsis_gcc.h **** #ifndef   __USED
  56:Drivers/CMSIS/Include/cmsis_gcc.h ****   #define __USED                                 __attribute__((used))
  57:Drivers/CMSIS/Include/cmsis_gcc.h **** #endif
  58:Drivers/CMSIS/Include/cmsis_gcc.h **** #ifndef   __WEAK
  59:Drivers/CMSIS/Include/cmsis_gcc.h ****   #define __WEAK                                 __attribute__((weak))
  60:Drivers/CMSIS/Include/cmsis_gcc.h **** #endif
  61:Drivers/CMSIS/Include/cmsis_gcc.h **** #ifndef   __PACKED
  62:Drivers/CMSIS/Include/cmsis_gcc.h ****   #define __PACKED                               __attribute__((packed, aligned(1)))
  63:Drivers/CMSIS/Include/cmsis_gcc.h **** #endif
  64:Drivers/CMSIS/Include/cmsis_gcc.h **** #ifndef   __PACKED_STRUCT
  65:Drivers/CMSIS/Include/cmsis_gcc.h ****   #define __PACKED_STRUCT                        struct __attribute__((packed, aligned(1)))
  66:Drivers/CMSIS/Include/cmsis_gcc.h **** #endif
  67:Drivers/CMSIS/Include/cmsis_gcc.h **** #ifndef   __PACKED_UNION
  68:Drivers/CMSIS/Include/cmsis_gcc.h ****   #define __PACKED_UNION                         union __attribute__((packed, aligned(1)))
  69:Drivers/CMSIS/Include/cmsis_gcc.h **** #endif
  70:Drivers/CMSIS/Include/cmsis_gcc.h **** #ifndef   __UNALIGNED_UINT32        /* deprecated */
  71:Drivers/CMSIS/Include/cmsis_gcc.h ****   #pragma GCC diagnostic push
  72:Drivers/CMSIS/Include/cmsis_gcc.h ****   #pragma GCC diagnostic ignored "-Wpacked"
  73:Drivers/CMSIS/Include/cmsis_gcc.h ****   #pragma GCC diagnostic ignored "-Wattributes"
  74:Drivers/CMSIS/Include/cmsis_gcc.h ****   struct __attribute__((packed)) T_UINT32 { uint32_t v; };
  75:Drivers/CMSIS/Include/cmsis_gcc.h ****   #pragma GCC diagnostic pop
  76:Drivers/CMSIS/Include/cmsis_gcc.h ****   #define __UNALIGNED_UINT32(x)                  (((struct T_UINT32 *)(x))->v)
  77:Drivers/CMSIS/Include/cmsis_gcc.h **** #endif
  78:Drivers/CMSIS/Include/cmsis_gcc.h **** #ifndef   __UNALIGNED_UINT16_WRITE
  79:Drivers/CMSIS/Include/cmsis_gcc.h ****   #pragma GCC diagnostic push
  80:Drivers/CMSIS/Include/cmsis_gcc.h ****   #pragma GCC diagnostic ignored "-Wpacked"
  81:Drivers/CMSIS/Include/cmsis_gcc.h ****   #pragma GCC diagnostic ignored "-Wattributes"
  82:Drivers/CMSIS/Include/cmsis_gcc.h ****   __PACKED_STRUCT T_UINT16_WRITE { uint16_t v; };
  83:Drivers/CMSIS/Include/cmsis_gcc.h ****   #pragma GCC diagnostic pop
  84:Drivers/CMSIS/Include/cmsis_gcc.h ****   #define __UNALIGNED_UINT16_WRITE(addr, val)    (void)((((struct T_UINT16_WRITE *)(void *)(addr))-
  85:Drivers/CMSIS/Include/cmsis_gcc.h **** #endif
  86:Drivers/CMSIS/Include/cmsis_gcc.h **** #ifndef   __UNALIGNED_UINT16_READ
  87:Drivers/CMSIS/Include/cmsis_gcc.h ****   #pragma GCC diagnostic push
  88:Drivers/CMSIS/Include/cmsis_gcc.h ****   #pragma GCC diagnostic ignored "-Wpacked"
  89:Drivers/CMSIS/Include/cmsis_gcc.h ****   #pragma GCC diagnostic ignored "-Wattributes"
  90:Drivers/CMSIS/Include/cmsis_gcc.h ****   __PACKED_STRUCT T_UINT16_READ { uint16_t v; };
  91:Drivers/CMSIS/Include/cmsis_gcc.h ****   #pragma GCC diagnostic pop
  92:Drivers/CMSIS/Include/cmsis_gcc.h ****   #define __UNALIGNED_UINT16_READ(addr)          (((const struct T_UINT16_READ *)(const void *)(add
  93:Drivers/CMSIS/Include/cmsis_gcc.h **** #endif
  94:Drivers/CMSIS/Include/cmsis_gcc.h **** #ifndef   __UNALIGNED_UINT32_WRITE
  95:Drivers/CMSIS/Include/cmsis_gcc.h ****   #pragma GCC diagnostic push
  96:Drivers/CMSIS/Include/cmsis_gcc.h ****   #pragma GCC diagnostic ignored "-Wpacked"
  97:Drivers/CMSIS/Include/cmsis_gcc.h ****   #pragma GCC diagnostic ignored "-Wattributes"
  98:Drivers/CMSIS/Include/cmsis_gcc.h ****   __PACKED_STRUCT T_UINT32_WRITE { uint32_t v; };
ARM GAS  C:\Users\Admin\AppData\Local\Temp\ccBVqVuH.s 			page 10


  99:Drivers/CMSIS/Include/cmsis_gcc.h ****   #pragma GCC diagnostic pop
 100:Drivers/CMSIS/Include/cmsis_gcc.h ****   #define __UNALIGNED_UINT32_WRITE(addr, val)    (void)((((struct T_UINT32_WRITE *)(void *)(addr))-
 101:Drivers/CMSIS/Include/cmsis_gcc.h **** #endif
 102:Drivers/CMSIS/Include/cmsis_gcc.h **** #ifndef   __UNALIGNED_UINT32_READ
 103:Drivers/CMSIS/Include/cmsis_gcc.h ****   #pragma GCC diagnostic push
 104:Drivers/CMSIS/Include/cmsis_gcc.h ****   #pragma GCC diagnostic ignored "-Wpacked"
 105:Drivers/CMSIS/Include/cmsis_gcc.h ****   #pragma GCC diagnostic ignored "-Wattributes"
 106:Drivers/CMSIS/Include/cmsis_gcc.h ****   __PACKED_STRUCT T_UINT32_READ { uint32_t v; };
 107:Drivers/CMSIS/Include/cmsis_gcc.h ****   #pragma GCC diagnostic pop
 108:Drivers/CMSIS/Include/cmsis_gcc.h ****   #define __UNALIGNED_UINT32_READ(addr)          (((const struct T_UINT32_READ *)(const void *)(add
 109:Drivers/CMSIS/Include/cmsis_gcc.h **** #endif
 110:Drivers/CMSIS/Include/cmsis_gcc.h **** #ifndef   __ALIGNED
 111:Drivers/CMSIS/Include/cmsis_gcc.h ****   #define __ALIGNED(x)                           __attribute__((aligned(x)))
 112:Drivers/CMSIS/Include/cmsis_gcc.h **** #endif
 113:Drivers/CMSIS/Include/cmsis_gcc.h **** #ifndef   __RESTRICT
 114:Drivers/CMSIS/Include/cmsis_gcc.h ****   #define __RESTRICT                             __restrict
 115:Drivers/CMSIS/Include/cmsis_gcc.h **** #endif
 116:Drivers/CMSIS/Include/cmsis_gcc.h **** #ifndef   __COMPILER_BARRIER
 117:Drivers/CMSIS/Include/cmsis_gcc.h ****   #define __COMPILER_BARRIER()                   __ASM volatile("":::"memory")
 118:Drivers/CMSIS/Include/cmsis_gcc.h **** #endif
 119:Drivers/CMSIS/Include/cmsis_gcc.h **** 
 120:Drivers/CMSIS/Include/cmsis_gcc.h **** /* #########################  Startup and Lowlevel Init  ######################## */
 121:Drivers/CMSIS/Include/cmsis_gcc.h **** 
 122:Drivers/CMSIS/Include/cmsis_gcc.h **** #ifndef __PROGRAM_START
 123:Drivers/CMSIS/Include/cmsis_gcc.h **** 
 124:Drivers/CMSIS/Include/cmsis_gcc.h **** /**
 125:Drivers/CMSIS/Include/cmsis_gcc.h ****   \brief   Initializes data and bss sections
 126:Drivers/CMSIS/Include/cmsis_gcc.h ****   \details This default implementations initialized all data and additional bss
 127:Drivers/CMSIS/Include/cmsis_gcc.h ****            sections relying on .copy.table and .zero.table specified properly
 128:Drivers/CMSIS/Include/cmsis_gcc.h ****            in the used linker script.
 129:Drivers/CMSIS/Include/cmsis_gcc.h ****   
 130:Drivers/CMSIS/Include/cmsis_gcc.h ****  */
 131:Drivers/CMSIS/Include/cmsis_gcc.h **** __STATIC_FORCEINLINE __NO_RETURN void __cmsis_start(void)
 132:Drivers/CMSIS/Include/cmsis_gcc.h **** {
 133:Drivers/CMSIS/Include/cmsis_gcc.h ****   extern void _start(void) __NO_RETURN;
 134:Drivers/CMSIS/Include/cmsis_gcc.h ****   
 135:Drivers/CMSIS/Include/cmsis_gcc.h ****   typedef struct {
 136:Drivers/CMSIS/Include/cmsis_gcc.h ****     uint32_t const* src;
 137:Drivers/CMSIS/Include/cmsis_gcc.h ****     uint32_t* dest;
 138:Drivers/CMSIS/Include/cmsis_gcc.h ****     uint32_t  wlen;
 139:Drivers/CMSIS/Include/cmsis_gcc.h ****   } __copy_table_t;
 140:Drivers/CMSIS/Include/cmsis_gcc.h ****   
 141:Drivers/CMSIS/Include/cmsis_gcc.h ****   typedef struct {
 142:Drivers/CMSIS/Include/cmsis_gcc.h ****     uint32_t* dest;
 143:Drivers/CMSIS/Include/cmsis_gcc.h ****     uint32_t  wlen;
 144:Drivers/CMSIS/Include/cmsis_gcc.h ****   } __zero_table_t;
 145:Drivers/CMSIS/Include/cmsis_gcc.h ****   
 146:Drivers/CMSIS/Include/cmsis_gcc.h ****   extern const __copy_table_t __copy_table_start__;
 147:Drivers/CMSIS/Include/cmsis_gcc.h ****   extern const __copy_table_t __copy_table_end__;
 148:Drivers/CMSIS/Include/cmsis_gcc.h ****   extern const __zero_table_t __zero_table_start__;
 149:Drivers/CMSIS/Include/cmsis_gcc.h ****   extern const __zero_table_t __zero_table_end__;
 150:Drivers/CMSIS/Include/cmsis_gcc.h **** 
 151:Drivers/CMSIS/Include/cmsis_gcc.h ****   for (__copy_table_t const* pTable = &__copy_table_start__; pTable < &__copy_table_end__; ++pTable
 152:Drivers/CMSIS/Include/cmsis_gcc.h ****     for(uint32_t i=0u; i<pTable->wlen; ++i) {
 153:Drivers/CMSIS/Include/cmsis_gcc.h ****       pTable->dest[i] = pTable->src[i];
 154:Drivers/CMSIS/Include/cmsis_gcc.h ****     }
 155:Drivers/CMSIS/Include/cmsis_gcc.h ****   }
ARM GAS  C:\Users\Admin\AppData\Local\Temp\ccBVqVuH.s 			page 11


 156:Drivers/CMSIS/Include/cmsis_gcc.h ****  
 157:Drivers/CMSIS/Include/cmsis_gcc.h ****   for (__zero_table_t const* pTable = &__zero_table_start__; pTable < &__zero_table_end__; ++pTable
 158:Drivers/CMSIS/Include/cmsis_gcc.h ****     for(uint32_t i=0u; i<pTable->wlen; ++i) {
 159:Drivers/CMSIS/Include/cmsis_gcc.h ****       pTable->dest[i] = 0u;
 160:Drivers/CMSIS/Include/cmsis_gcc.h ****     }
 161:Drivers/CMSIS/Include/cmsis_gcc.h ****   }
 162:Drivers/CMSIS/Include/cmsis_gcc.h ****  
 163:Drivers/CMSIS/Include/cmsis_gcc.h ****   _start();
 164:Drivers/CMSIS/Include/cmsis_gcc.h **** }
 165:Drivers/CMSIS/Include/cmsis_gcc.h ****   
 166:Drivers/CMSIS/Include/cmsis_gcc.h **** #define __PROGRAM_START           __cmsis_start
 167:Drivers/CMSIS/Include/cmsis_gcc.h **** #endif
 168:Drivers/CMSIS/Include/cmsis_gcc.h **** 
 169:Drivers/CMSIS/Include/cmsis_gcc.h **** #ifndef __INITIAL_SP
 170:Drivers/CMSIS/Include/cmsis_gcc.h **** #define __INITIAL_SP              __StackTop
 171:Drivers/CMSIS/Include/cmsis_gcc.h **** #endif
 172:Drivers/CMSIS/Include/cmsis_gcc.h **** 
 173:Drivers/CMSIS/Include/cmsis_gcc.h **** #ifndef __STACK_LIMIT
 174:Drivers/CMSIS/Include/cmsis_gcc.h **** #define __STACK_LIMIT             __StackLimit
 175:Drivers/CMSIS/Include/cmsis_gcc.h **** #endif
 176:Drivers/CMSIS/Include/cmsis_gcc.h **** 
 177:Drivers/CMSIS/Include/cmsis_gcc.h **** #ifndef __VECTOR_TABLE
 178:Drivers/CMSIS/Include/cmsis_gcc.h **** #define __VECTOR_TABLE            __Vectors
 179:Drivers/CMSIS/Include/cmsis_gcc.h **** #endif
 180:Drivers/CMSIS/Include/cmsis_gcc.h **** 
 181:Drivers/CMSIS/Include/cmsis_gcc.h **** #ifndef __VECTOR_TABLE_ATTRIBUTE
 182:Drivers/CMSIS/Include/cmsis_gcc.h **** #define __VECTOR_TABLE_ATTRIBUTE  __attribute((used, section(".vectors")))
 183:Drivers/CMSIS/Include/cmsis_gcc.h **** #endif
 184:Drivers/CMSIS/Include/cmsis_gcc.h **** 
 185:Drivers/CMSIS/Include/cmsis_gcc.h **** /* ###########################  Core Function Access  ########################### */
 186:Drivers/CMSIS/Include/cmsis_gcc.h **** /** \ingroup  CMSIS_Core_FunctionInterface
 187:Drivers/CMSIS/Include/cmsis_gcc.h ****     \defgroup CMSIS_Core_RegAccFunctions CMSIS Core Register Access Functions
 188:Drivers/CMSIS/Include/cmsis_gcc.h ****   @{
 189:Drivers/CMSIS/Include/cmsis_gcc.h ****  */
 190:Drivers/CMSIS/Include/cmsis_gcc.h **** 
 191:Drivers/CMSIS/Include/cmsis_gcc.h **** /**
 192:Drivers/CMSIS/Include/cmsis_gcc.h ****   \brief   Enable IRQ Interrupts
 193:Drivers/CMSIS/Include/cmsis_gcc.h ****   \details Enables IRQ interrupts by clearing the I-bit in the CPSR.
 194:Drivers/CMSIS/Include/cmsis_gcc.h ****            Can only be executed in Privileged modes.
 195:Drivers/CMSIS/Include/cmsis_gcc.h ****  */
 196:Drivers/CMSIS/Include/cmsis_gcc.h **** __STATIC_FORCEINLINE void __enable_irq(void)
 197:Drivers/CMSIS/Include/cmsis_gcc.h **** {
 198:Drivers/CMSIS/Include/cmsis_gcc.h ****   __ASM volatile ("cpsie i" : : : "memory");
 199:Drivers/CMSIS/Include/cmsis_gcc.h **** }
 200:Drivers/CMSIS/Include/cmsis_gcc.h **** 
 201:Drivers/CMSIS/Include/cmsis_gcc.h **** 
 202:Drivers/CMSIS/Include/cmsis_gcc.h **** /**
 203:Drivers/CMSIS/Include/cmsis_gcc.h ****   \brief   Disable IRQ Interrupts
 204:Drivers/CMSIS/Include/cmsis_gcc.h ****   \details Disables IRQ interrupts by setting the I-bit in the CPSR.
 205:Drivers/CMSIS/Include/cmsis_gcc.h ****            Can only be executed in Privileged modes.
 206:Drivers/CMSIS/Include/cmsis_gcc.h ****  */
 207:Drivers/CMSIS/Include/cmsis_gcc.h **** __STATIC_FORCEINLINE void __disable_irq(void)
 183              		.loc 2 207 27 view .LVU47
 184              	.LBB9:
 208:Drivers/CMSIS/Include/cmsis_gcc.h **** {
 209:Drivers/CMSIS/Include/cmsis_gcc.h ****   __ASM volatile ("cpsid i" : : : "memory");
 185              		.loc 2 209 3 view .LVU48
ARM GAS  C:\Users\Admin\AppData\Local\Temp\ccBVqVuH.s 			page 12


 186              		.syntax unified
 187              	@ 209 "Drivers/CMSIS/Include/cmsis_gcc.h" 1
 188 0000 72B6     		cpsid i
 189              	@ 0 "" 2
 190              		.thumb
 191              		.syntax unified
 192              	.L6:
 193              	.LBE9:
 194              	.LBE8:
 237:Core/Src/main.c ****   while (1)
 195              		.loc 1 237 3 discriminator 1 view .LVU49
 238:Core/Src/main.c ****   {
 239:Core/Src/main.c ****   }
 196              		.loc 1 239 3 discriminator 1 view .LVU50
 237:Core/Src/main.c ****   while (1)
 197              		.loc 1 237 9 discriminator 1 view .LVU51
 198 0002 FEE7     		b	.L6
 199              		.cfi_endproc
 200              	.LFE136:
 202              		.section	.text.MX_USART2_UART_Init,"ax",%progbits
 203              		.align	1
 204              		.syntax unified
 205              		.thumb
 206              		.thumb_func
 208              	MX_USART2_UART_Init:
 209              	.LFB134:
 162:Core/Src/main.c **** 
 210              		.loc 1 162 1 view -0
 211              		.cfi_startproc
 212              		@ args = 0, pretend = 0, frame = 0
 213              		@ frame_needed = 0, uses_anonymous_args = 0
 214 0000 08B5     		push	{r3, lr}
 215              	.LCFI3:
 216              		.cfi_def_cfa_offset 8
 217              		.cfi_offset 3, -8
 218              		.cfi_offset 14, -4
 171:Core/Src/main.c ****   huart2.Init.BaudRate = 115200;
 219              		.loc 1 171 3 view .LVU53
 171:Core/Src/main.c ****   huart2.Init.BaudRate = 115200;
 220              		.loc 1 171 19 is_stmt 0 view .LVU54
 221 0002 0B48     		ldr	r0, .L11
 222 0004 0B4B     		ldr	r3, .L11+4
 223 0006 0360     		str	r3, [r0]
 172:Core/Src/main.c ****   huart2.Init.WordLength = UART_WORDLENGTH_8B;
 224              		.loc 1 172 3 is_stmt 1 view .LVU55
 172:Core/Src/main.c ****   huart2.Init.WordLength = UART_WORDLENGTH_8B;
 225              		.loc 1 172 24 is_stmt 0 view .LVU56
 226 0008 4FF4E133 		mov	r3, #115200
 227 000c 4360     		str	r3, [r0, #4]
 173:Core/Src/main.c ****   huart2.Init.StopBits = UART_STOPBITS_1;
 228              		.loc 1 173 3 is_stmt 1 view .LVU57
 173:Core/Src/main.c ****   huart2.Init.StopBits = UART_STOPBITS_1;
 229              		.loc 1 173 26 is_stmt 0 view .LVU58
 230 000e 0023     		movs	r3, #0
 231 0010 8360     		str	r3, [r0, #8]
 174:Core/Src/main.c ****   huart2.Init.Parity = UART_PARITY_NONE;
 232              		.loc 1 174 3 is_stmt 1 view .LVU59
ARM GAS  C:\Users\Admin\AppData\Local\Temp\ccBVqVuH.s 			page 13


 174:Core/Src/main.c ****   huart2.Init.Parity = UART_PARITY_NONE;
 233              		.loc 1 174 24 is_stmt 0 view .LVU60
 234 0012 C360     		str	r3, [r0, #12]
 175:Core/Src/main.c ****   huart2.Init.Mode = UART_MODE_TX_RX;
 235              		.loc 1 175 3 is_stmt 1 view .LVU61
 175:Core/Src/main.c ****   huart2.Init.Mode = UART_MODE_TX_RX;
 236              		.loc 1 175 22 is_stmt 0 view .LVU62
 237 0014 0361     		str	r3, [r0, #16]
 176:Core/Src/main.c ****   huart2.Init.HwFlowCtl = UART_HWCONTROL_NONE;
 238              		.loc 1 176 3 is_stmt 1 view .LVU63
 176:Core/Src/main.c ****   huart2.Init.HwFlowCtl = UART_HWCONTROL_NONE;
 239              		.loc 1 176 20 is_stmt 0 view .LVU64
 240 0016 0C22     		movs	r2, #12
 241 0018 4261     		str	r2, [r0, #20]
 177:Core/Src/main.c ****   huart2.Init.OverSampling = UART_OVERSAMPLING_16;
 242              		.loc 1 177 3 is_stmt 1 view .LVU65
 177:Core/Src/main.c ****   huart2.Init.OverSampling = UART_OVERSAMPLING_16;
 243              		.loc 1 177 25 is_stmt 0 view .LVU66
 244 001a 8361     		str	r3, [r0, #24]
 178:Core/Src/main.c ****   huart2.Init.OneBitSampling = UART_ONE_BIT_SAMPLE_DISABLE;
 245              		.loc 1 178 3 is_stmt 1 view .LVU67
 178:Core/Src/main.c ****   huart2.Init.OneBitSampling = UART_ONE_BIT_SAMPLE_DISABLE;
 246              		.loc 1 178 28 is_stmt 0 view .LVU68
 247 001c C361     		str	r3, [r0, #28]
 179:Core/Src/main.c ****   huart2.AdvancedInit.AdvFeatureInit = UART_ADVFEATURE_NO_INIT;
 248              		.loc 1 179 3 is_stmt 1 view .LVU69
 179:Core/Src/main.c ****   huart2.AdvancedInit.AdvFeatureInit = UART_ADVFEATURE_NO_INIT;
 249              		.loc 1 179 30 is_stmt 0 view .LVU70
 250 001e 0362     		str	r3, [r0, #32]
 180:Core/Src/main.c ****   if (HAL_UART_Init(&huart2) != HAL_OK)
 251              		.loc 1 180 3 is_stmt 1 view .LVU71
 180:Core/Src/main.c ****   if (HAL_UART_Init(&huart2) != HAL_OK)
 252              		.loc 1 180 38 is_stmt 0 view .LVU72
 253 0020 4362     		str	r3, [r0, #36]
 181:Core/Src/main.c ****   {
 254              		.loc 1 181 3 is_stmt 1 view .LVU73
 181:Core/Src/main.c ****   {
 255              		.loc 1 181 7 is_stmt 0 view .LVU74
 256 0022 FFF7FEFF 		bl	HAL_UART_Init
 257              	.LVL3:
 181:Core/Src/main.c ****   {
 258              		.loc 1 181 6 view .LVU75
 259 0026 00B9     		cbnz	r0, .L10
 189:Core/Src/main.c **** 
 260              		.loc 1 189 1 view .LVU76
 261 0028 08BD     		pop	{r3, pc}
 262              	.L10:
 183:Core/Src/main.c ****   }
 263              		.loc 1 183 5 is_stmt 1 view .LVU77
 264 002a FFF7FEFF 		bl	Error_Handler
 265              	.LVL4:
 266              	.L12:
 267 002e 00BF     		.align	2
 268              	.L11:
 269 0030 00000000 		.word	.LANCHOR0
 270 0034 00440040 		.word	1073759232
 271              		.cfi_endproc
ARM GAS  C:\Users\Admin\AppData\Local\Temp\ccBVqVuH.s 			page 14


 272              	.LFE134:
 274              		.section	.text.SystemClock_Config,"ax",%progbits
 275              		.align	1
 276              		.global	SystemClock_Config
 277              		.syntax unified
 278              		.thumb
 279              		.thumb_func
 281              	SystemClock_Config:
 282              	.LFB133:
 112:Core/Src/main.c ****   RCC_OscInitTypeDef RCC_OscInitStruct = {0};
 283              		.loc 1 112 1 view -0
 284              		.cfi_startproc
 285              		@ args = 0, pretend = 0, frame = 88
 286              		@ frame_needed = 0, uses_anonymous_args = 0
 287 0000 00B5     		push	{lr}
 288              	.LCFI4:
 289              		.cfi_def_cfa_offset 4
 290              		.cfi_offset 14, -4
 291 0002 97B0     		sub	sp, sp, #92
 292              	.LCFI5:
 293              		.cfi_def_cfa_offset 96
 113:Core/Src/main.c ****   RCC_ClkInitTypeDef RCC_ClkInitStruct = {0};
 294              		.loc 1 113 3 view .LVU79
 113:Core/Src/main.c ****   RCC_ClkInitTypeDef RCC_ClkInitStruct = {0};
 295              		.loc 1 113 22 is_stmt 0 view .LVU80
 296 0004 4422     		movs	r2, #68
 297 0006 0021     		movs	r1, #0
 298 0008 05A8     		add	r0, sp, #20
 299 000a FFF7FEFF 		bl	memset
 300              	.LVL5:
 114:Core/Src/main.c **** 
 301              		.loc 1 114 3 is_stmt 1 view .LVU81
 114:Core/Src/main.c **** 
 302              		.loc 1 114 22 is_stmt 0 view .LVU82
 303 000e 0023     		movs	r3, #0
 304 0010 0093     		str	r3, [sp]
 305 0012 0193     		str	r3, [sp, #4]
 306 0014 0293     		str	r3, [sp, #8]
 307 0016 0393     		str	r3, [sp, #12]
 308 0018 0493     		str	r3, [sp, #16]
 118:Core/Src/main.c ****   {
 309              		.loc 1 118 3 is_stmt 1 view .LVU83
 118:Core/Src/main.c ****   {
 310              		.loc 1 118 7 is_stmt 0 view .LVU84
 311 001a 4FF40070 		mov	r0, #512
 312 001e FFF7FEFF 		bl	HAL_PWREx_ControlVoltageScaling
 313              	.LVL6:
 118:Core/Src/main.c ****   {
 314              		.loc 1 118 6 view .LVU85
 315 0022 20BB     		cbnz	r0, .L18
 126:Core/Src/main.c ****   RCC_OscInitStruct.HSIState = RCC_HSI_ON;
 316              		.loc 1 126 3 is_stmt 1 view .LVU86
 126:Core/Src/main.c ****   RCC_OscInitStruct.HSIState = RCC_HSI_ON;
 317              		.loc 1 126 36 is_stmt 0 view .LVU87
 318 0024 0223     		movs	r3, #2
 319 0026 0593     		str	r3, [sp, #20]
 127:Core/Src/main.c ****   RCC_OscInitStruct.HSICalibrationValue = RCC_HSICALIBRATION_DEFAULT;
ARM GAS  C:\Users\Admin\AppData\Local\Temp\ccBVqVuH.s 			page 15


 320              		.loc 1 127 3 is_stmt 1 view .LVU88
 127:Core/Src/main.c ****   RCC_OscInitStruct.HSICalibrationValue = RCC_HSICALIBRATION_DEFAULT;
 321              		.loc 1 127 30 is_stmt 0 view .LVU89
 322 0028 4FF48072 		mov	r2, #256
 323 002c 0892     		str	r2, [sp, #32]
 128:Core/Src/main.c ****   RCC_OscInitStruct.PLL.PLLState = RCC_PLL_ON;
 324              		.loc 1 128 3 is_stmt 1 view .LVU90
 128:Core/Src/main.c ****   RCC_OscInitStruct.PLL.PLLState = RCC_PLL_ON;
 325              		.loc 1 128 41 is_stmt 0 view .LVU91
 326 002e 1022     		movs	r2, #16
 327 0030 0992     		str	r2, [sp, #36]
 129:Core/Src/main.c ****   RCC_OscInitStruct.PLL.PLLSource = RCC_PLLSOURCE_HSI;
 328              		.loc 1 129 3 is_stmt 1 view .LVU92
 129:Core/Src/main.c ****   RCC_OscInitStruct.PLL.PLLSource = RCC_PLLSOURCE_HSI;
 329              		.loc 1 129 34 is_stmt 0 view .LVU93
 330 0032 0F93     		str	r3, [sp, #60]
 130:Core/Src/main.c ****   RCC_OscInitStruct.PLL.PLLM = 1;
 331              		.loc 1 130 3 is_stmt 1 view .LVU94
 130:Core/Src/main.c ****   RCC_OscInitStruct.PLL.PLLM = 1;
 332              		.loc 1 130 35 is_stmt 0 view .LVU95
 333 0034 1093     		str	r3, [sp, #64]
 131:Core/Src/main.c ****   RCC_OscInitStruct.PLL.PLLN = 10;
 334              		.loc 1 131 3 is_stmt 1 view .LVU96
 131:Core/Src/main.c ****   RCC_OscInitStruct.PLL.PLLN = 10;
 335              		.loc 1 131 30 is_stmt 0 view .LVU97
 336 0036 0122     		movs	r2, #1
 337 0038 1192     		str	r2, [sp, #68]
 132:Core/Src/main.c ****   RCC_OscInitStruct.PLL.PLLP = RCC_PLLP_DIV7;
 338              		.loc 1 132 3 is_stmt 1 view .LVU98
 132:Core/Src/main.c ****   RCC_OscInitStruct.PLL.PLLP = RCC_PLLP_DIV7;
 339              		.loc 1 132 30 is_stmt 0 view .LVU99
 340 003a 0A22     		movs	r2, #10
 341 003c 1292     		str	r2, [sp, #72]
 133:Core/Src/main.c ****   RCC_OscInitStruct.PLL.PLLQ = RCC_PLLQ_DIV2;
 342              		.loc 1 133 3 is_stmt 1 view .LVU100
 133:Core/Src/main.c ****   RCC_OscInitStruct.PLL.PLLQ = RCC_PLLQ_DIV2;
 343              		.loc 1 133 30 is_stmt 0 view .LVU101
 344 003e 0722     		movs	r2, #7
 345 0040 1392     		str	r2, [sp, #76]
 134:Core/Src/main.c ****   RCC_OscInitStruct.PLL.PLLR = RCC_PLLR_DIV2;
 346              		.loc 1 134 3 is_stmt 1 view .LVU102
 134:Core/Src/main.c ****   RCC_OscInitStruct.PLL.PLLR = RCC_PLLR_DIV2;
 347              		.loc 1 134 30 is_stmt 0 view .LVU103
 348 0042 1493     		str	r3, [sp, #80]
 135:Core/Src/main.c ****   if (HAL_RCC_OscConfig(&RCC_OscInitStruct) != HAL_OK)
 349              		.loc 1 135 3 is_stmt 1 view .LVU104
 135:Core/Src/main.c ****   if (HAL_RCC_OscConfig(&RCC_OscInitStruct) != HAL_OK)
 350              		.loc 1 135 30 is_stmt 0 view .LVU105
 351 0044 1593     		str	r3, [sp, #84]
 136:Core/Src/main.c ****   {
 352              		.loc 1 136 3 is_stmt 1 view .LVU106
 136:Core/Src/main.c ****   {
 353              		.loc 1 136 7 is_stmt 0 view .LVU107
 354 0046 05A8     		add	r0, sp, #20
 355 0048 FFF7FEFF 		bl	HAL_RCC_OscConfig
 356              	.LVL7:
 136:Core/Src/main.c ****   {
ARM GAS  C:\Users\Admin\AppData\Local\Temp\ccBVqVuH.s 			page 16


 357              		.loc 1 136 6 view .LVU108
 358 004c 88B9     		cbnz	r0, .L19
 143:Core/Src/main.c ****                               |RCC_CLOCKTYPE_PCLK1|RCC_CLOCKTYPE_PCLK2;
 359              		.loc 1 143 3 is_stmt 1 view .LVU109
 143:Core/Src/main.c ****                               |RCC_CLOCKTYPE_PCLK1|RCC_CLOCKTYPE_PCLK2;
 360              		.loc 1 143 31 is_stmt 0 view .LVU110
 361 004e 0F23     		movs	r3, #15
 362 0050 0093     		str	r3, [sp]
 145:Core/Src/main.c ****   RCC_ClkInitStruct.AHBCLKDivider = RCC_SYSCLK_DIV1;
 363              		.loc 1 145 3 is_stmt 1 view .LVU111
 145:Core/Src/main.c ****   RCC_ClkInitStruct.AHBCLKDivider = RCC_SYSCLK_DIV1;
 364              		.loc 1 145 34 is_stmt 0 view .LVU112
 365 0052 0323     		movs	r3, #3
 366 0054 0193     		str	r3, [sp, #4]
 146:Core/Src/main.c ****   RCC_ClkInitStruct.APB1CLKDivider = RCC_HCLK_DIV1;
 367              		.loc 1 146 3 is_stmt 1 view .LVU113
 146:Core/Src/main.c ****   RCC_ClkInitStruct.APB1CLKDivider = RCC_HCLK_DIV1;
 368              		.loc 1 146 35 is_stmt 0 view .LVU114
 369 0056 0023     		movs	r3, #0
 370 0058 0293     		str	r3, [sp, #8]
 147:Core/Src/main.c ****   RCC_ClkInitStruct.APB2CLKDivider = RCC_HCLK_DIV1;
 371              		.loc 1 147 3 is_stmt 1 view .LVU115
 147:Core/Src/main.c ****   RCC_ClkInitStruct.APB2CLKDivider = RCC_HCLK_DIV1;
 372              		.loc 1 147 36 is_stmt 0 view .LVU116
 373 005a 0393     		str	r3, [sp, #12]
 148:Core/Src/main.c **** 
 374              		.loc 1 148 3 is_stmt 1 view .LVU117
 148:Core/Src/main.c **** 
 375              		.loc 1 148 36 is_stmt 0 view .LVU118
 376 005c 0493     		str	r3, [sp, #16]
 150:Core/Src/main.c ****   {
 377              		.loc 1 150 3 is_stmt 1 view .LVU119
 150:Core/Src/main.c ****   {
 378              		.loc 1 150 7 is_stmt 0 view .LVU120
 379 005e 0421     		movs	r1, #4
 380 0060 6846     		mov	r0, sp
 381 0062 FFF7FEFF 		bl	HAL_RCC_ClockConfig
 382              	.LVL8:
 150:Core/Src/main.c ****   {
 383              		.loc 1 150 6 view .LVU121
 384 0066 30B9     		cbnz	r0, .L20
 154:Core/Src/main.c **** 
 385              		.loc 1 154 1 view .LVU122
 386 0068 17B0     		add	sp, sp, #92
 387              	.LCFI6:
 388              		.cfi_remember_state
 389              		.cfi_def_cfa_offset 4
 390              		@ sp needed
 391 006a 5DF804FB 		ldr	pc, [sp], #4
 392              	.L18:
 393              	.LCFI7:
 394              		.cfi_restore_state
 120:Core/Src/main.c ****   }
 395              		.loc 1 120 5 is_stmt 1 view .LVU123
 396 006e FFF7FEFF 		bl	Error_Handler
 397              	.LVL9:
 398              	.L19:
ARM GAS  C:\Users\Admin\AppData\Local\Temp\ccBVqVuH.s 			page 17


 138:Core/Src/main.c ****   }
 399              		.loc 1 138 5 view .LVU124
 400 0072 FFF7FEFF 		bl	Error_Handler
 401              	.LVL10:
 402              	.L20:
 152:Core/Src/main.c ****   }
 403              		.loc 1 152 5 view .LVU125
 404 0076 FFF7FEFF 		bl	Error_Handler
 405              	.LVL11:
 406              		.cfi_endproc
 407              	.LFE133:
 409              		.section	.text.main,"ax",%progbits
 410              		.align	1
 411              		.global	main
 412              		.syntax unified
 413              		.thumb
 414              		.thumb_func
 416              	main:
 417              	.LFB132:
  66:Core/Src/main.c ****   /* USER CODE BEGIN 1 */
 418              		.loc 1 66 1 view -0
 419              		.cfi_startproc
 420              		@ Volatile: function does not return.
 421              		@ args = 0, pretend = 0, frame = 0
 422              		@ frame_needed = 0, uses_anonymous_args = 0
 423 0000 08B5     		push	{r3, lr}
 424              	.LCFI8:
 425              		.cfi_def_cfa_offset 8
 426              		.cfi_offset 3, -8
 427              		.cfi_offset 14, -4
  74:Core/Src/main.c **** 
 428              		.loc 1 74 3 view .LVU127
 429 0002 FFF7FEFF 		bl	HAL_Init
 430              	.LVL12:
  81:Core/Src/main.c **** 
 431              		.loc 1 81 3 view .LVU128
 432 0006 FFF7FEFF 		bl	SystemClock_Config
 433              	.LVL13:
  88:Core/Src/main.c ****   MX_USART2_UART_Init();
 434              		.loc 1 88 3 view .LVU129
 435 000a FFF7FEFF 		bl	MX_GPIO_Init
 436              	.LVL14:
  89:Core/Src/main.c ****   /* USER CODE BEGIN 2 */
 437              		.loc 1 89 3 view .LVU130
 438 000e FFF7FEFF 		bl	MX_USART2_UART_Init
 439              	.LVL15:
 440              	.L22:
  96:Core/Src/main.c ****   {
 441              		.loc 1 96 3 discriminator 1 view .LVU131
  99:Core/Src/main.c ****     HAL_UART_Transmit(&huart2, (uint8_t*)message, strlen(message), HAL_MAX_DELAY);
 442              		.loc 1 99 5 discriminator 1 view .LVU132
 443 0012 2021     		movs	r1, #32
 444 0014 4FF09040 		mov	r0, #1207959552
 445 0018 FFF7FEFF 		bl	HAL_GPIO_TogglePin
 446              	.LVL16:
 100:Core/Src/main.c ****     HAL_Delay(1000);
 447              		.loc 1 100 5 discriminator 1 view .LVU133
ARM GAS  C:\Users\Admin\AppData\Local\Temp\ccBVqVuH.s 			page 18


 448 001c 084B     		ldr	r3, .L24
 449 001e 1C68     		ldr	r4, [r3]
 100:Core/Src/main.c ****     HAL_Delay(1000);
 450              		.loc 1 100 51 is_stmt 0 discriminator 1 view .LVU134
 451 0020 2046     		mov	r0, r4
 452 0022 FFF7FEFF 		bl	strlen
 453              	.LVL17:
 100:Core/Src/main.c ****     HAL_Delay(1000);
 454              		.loc 1 100 5 discriminator 1 view .LVU135
 455 0026 4FF0FF33 		mov	r3, #-1
 456 002a 82B2     		uxth	r2, r0
 457 002c 2146     		mov	r1, r4
 458 002e 0548     		ldr	r0, .L24+4
 459 0030 FFF7FEFF 		bl	HAL_UART_Transmit
 460              	.LVL18:
 101:Core/Src/main.c ****     /* USER CODE BEGIN 3 */
 461              		.loc 1 101 5 is_stmt 1 discriminator 1 view .LVU136
 462 0034 4FF47A70 		mov	r0, #1000
 463 0038 FFF7FEFF 		bl	HAL_Delay
 464              	.LVL19:
  96:Core/Src/main.c ****   {
 465              		.loc 1 96 9 discriminator 1 view .LVU137
 466 003c E9E7     		b	.L22
 467              	.L25:
 468 003e 00BF     		.align	2
 469              	.L24:
 470 0040 00000000 		.word	.LANCHOR1
 471 0044 00000000 		.word	.LANCHOR0
 472              		.cfi_endproc
 473              	.LFE132:
 475              		.global	message
 476              		.section	.rodata.str1.4,"aMS",%progbits,1
 477              		.align	2
 478              	.LC0:
 479 0000 58696E20 		.ascii	"Xin chao Tuan Nhat!\015\012\000"
 479      6368616F 
 479      20547561 
 479      6E204E68 
 479      6174210D 
 480              		.global	huart2
 481              		.section	.bss.huart2,"aw",%nobits
 482              		.align	2
 483              		.set	.LANCHOR0,. + 0
 486              	huart2:
 487 0000 00000000 		.space	132
 487      00000000 
 487      00000000 
 487      00000000 
 487      00000000 
 488              		.section	.data.message,"aw"
 489              		.align	2
 490              		.set	.LANCHOR1,. + 0
 493              	message:
 494 0000 00000000 		.word	.LC0
 495              		.text
 496              	.Letext0:
 497              		.file 3 "c:\\gnu_arm_embedded\\arm-none-eabi\\include\\machine\\_default_types.h"
ARM GAS  C:\Users\Admin\AppData\Local\Temp\ccBVqVuH.s 			page 19


 498              		.file 4 "c:\\gnu_arm_embedded\\arm-none-eabi\\include\\sys\\_stdint.h"
 499              		.file 5 "Drivers/CMSIS/Device/ST/STM32L4xx/Include/stm32l476xx.h"
 500              		.file 6 "Drivers/STM32L4xx_HAL_Driver/Inc/stm32l4xx_hal_def.h"
 501              		.file 7 "Drivers/STM32L4xx_HAL_Driver/Inc/stm32l4xx_hal_rcc.h"
 502              		.file 8 "Drivers/STM32L4xx_HAL_Driver/Inc/stm32l4xx_hal_gpio.h"
 503              		.file 9 "Drivers/STM32L4xx_HAL_Driver/Inc/stm32l4xx_hal_dma.h"
 504              		.file 10 "Drivers/STM32L4xx_HAL_Driver/Inc/stm32l4xx_hal_uart.h"
 505              		.file 11 "Drivers/STM32L4xx_HAL_Driver/Inc/stm32l4xx_hal_pwr_ex.h"
 506              		.file 12 "Drivers/STM32L4xx_HAL_Driver/Inc/stm32l4xx_hal.h"
 507              		.file 13 "c:\\gnu_arm_embedded\\arm-none-eabi\\include\\string.h"
 508              		.file 14 "<built-in>"
ARM GAS  C:\Users\Admin\AppData\Local\Temp\ccBVqVuH.s 			page 20

